target datalayout = "e-m:e-p270:32:32-p271:32:32-p272:64:64-i64:64-i128:128-f80:128-n8:16:32:64-S128"
target triple = "x86_64-pc-linux-gnu"

%class.FragmentedWindow = type { [32 x ptr], [32 x i64] }

; Function Attrs: mustprogress nounwind uwtable
define noundef nonnull align 1 dereferenceable(1) ptr @_ZN16FragmentedWindowixEm(ptr noundef nonnull align 8 dereferenceable(512) %0, i64 noundef %1) #1 align 2 {
  %3 = alloca ptr, align 8
  %4 = alloca ptr, align 8
  %5 = alloca i64, align 8
  %6 = alloca i32, align 4
  store ptr %0, ptr %4, align 8
  store i64 %1, ptr %5, align 8
  %7 = load ptr, ptr %4, align 8
  %8 = load i64, ptr %5, align 8
  %9 = getelementptr inbounds %class.FragmentedWindow, ptr %7, i32 0, i32 1
  %10 = getelementptr inbounds [32 x i64], ptr %9, i64 0, i64 0
  %11 = load i64, ptr %10, align 8
  %12 = icmp ult i64 %8, %11
  br i1 %12, label %13, label %19

13:                                               ; preds = %2
  %14 = getelementptr inbounds %class.FragmentedWindow, ptr %7, i32 0, i32 0
  %15 = getelementptr inbounds [32 x ptr], ptr %14, i64 0, i64 0
  %16 = load ptr, ptr %15, align 8
  %17 = load i64, ptr %5, align 8
  %18 = getelementptr inbounds i8, ptr %16, i64 %17
  store ptr %18, ptr %3, align 8
  br label %56

19:                                               ; preds = %2
  store i32 1, ptr %6, align 4
  br label %20

20:                                               ; preds = %48, %19
  %21 = load i32, ptr %6, align 4
  %22 = zext i32 %21 to i64
  %23 = icmp ult i64 %22, 32
  br i1 %23, label %24, label %51

24:                                               ; preds = %20
  %25 = load i64, ptr %5, align 8
  %26 = getelementptr inbounds %class.FragmentedWindow, ptr %7, i32 0, i32 1
  %27 = load i32, ptr %6, align 4
  %28 = zext i32 %27 to i64
  %29 = getelementptr inbounds [32 x i64], ptr %26, i64 0, i64 %28
  %30 = load i64, ptr %29, align 8
  %31 = icmp ult i64 %25, %30
  br i1 %31, label %32, label %47

32:                                               ; preds = %24
  %33 = getelementptr inbounds %class.FragmentedWindow, ptr %7, i32 0, i32 0
  %34 = load i32, ptr %6, align 4
  %35 = zext i32 %34 to i64
  %36 = getelementptr inbounds [32 x ptr], ptr %33, i64 0, i64 %35
  %37 = load ptr, ptr %36, align 8
  %38 = load i64, ptr %5, align 8
  %39 = getelementptr inbounds %class.FragmentedWindow, ptr %7, i32 0, i32 1
  %40 = load i32, ptr %6, align 4
  %41 = sub i32 %40, 1
  %42 = zext i32 %41 to i64
  %43 = getelementptr inbounds [32 x i64], ptr %39, i64 0, i64 %42
  %44 = load i64, ptr %43, align 8
  %45 = sub i64 %38, %44
  %46 = getelementptr inbounds i8, ptr %37, i64 %45
  store ptr %46, ptr %3, align 8
  br label %56

47:                                               ; preds = %24
  br label %48

48:                                               ; preds = %47
  %49 = load i32, ptr %6, align 4
  %50 = add i32 %49, 1
  store i32 %50, ptr %6, align 4
  br label %20, !llvm.loop !104

51:                                               ; preds = %20
  %52 = getelementptr inbounds %class.FragmentedWindow, ptr %7, i32 0, i32 0
  %53 = getelementptr inbounds [32 x ptr], ptr %52, i64 0, i64 0
  %54 = load ptr, ptr %53, align 8
  %55 = getelementptr inbounds i8, ptr %54, i64 0
  store ptr %55, ptr %3, align 8
  br label %56

56:                                               ; preds = %51, %32, %13
  %57 = load ptr, ptr %3, align 8
  ret ptr %57
}