; Function Attrs: mustprogress nofree norecurse nosync nounwind willreturn memory(argmem: read) uwtable
define noundef nonnull align 1 dereferenceable(1) ptr @_ZN16FragmentedWindowixEm(ptr nocapture noundef nonnull readonly align 8 dereferenceable(512) %0, i64 noundef %1) local_unnamed_addr #15 align 2 {
  %3 = getelementptr inbounds i8, ptr %0, i64 256
  %4 = load i64, ptr %3, align 8
  %5 = icmp ugt i64 %4, %1
  br i1 %5, label %6, label %.preheader

6:                                                ; preds = %2
  %7 = load ptr, ptr %0, align 8
  %8 = getelementptr inbounds i8, ptr %7, i64 %1
  br label %24

.preheader:                                       ; preds = %2, %21
  %indvars.iv = phi i64 [ %indvars.iv.next, %21 ], [ 1, %2 ]
  %9 = getelementptr inbounds [32 x i64], ptr %3, i64 0, i64 %indvars.iv
  %10 = load i64, ptr %9, align 8
  %11 = icmp ugt i64 %10, %1
  br i1 %11, label %12, label %21

12:                                               ; preds = %.preheader
  %13 = getelementptr inbounds [32 x ptr], ptr %0, i64 0, i64 %indvars.iv
  %14 = load ptr, ptr %13, align 8
  %15 = add nuw i64 %indvars.iv, 4294967295
  %16 = and i64 %15, 4294967295
  %17 = getelementptr inbounds [32 x i64], ptr %3, i64 0, i64 %16
  %18 = load i64, ptr %17, align 8
  %19 = sub i64 %1, %18
  %20 = getelementptr inbounds i8, ptr %14, i64 %19
  br label %24

21:                                               ; preds = %.preheader
  %indvars.iv.next = add nuw nsw i64 %indvars.iv, 1
  %exitcond.not = icmp eq i64 %indvars.iv.next, 32
  br i1 %exitcond.not, label %22, label %.preheader, !llvm.loop !92

22:                                               ; preds = %21
  %23 = load ptr, ptr %0, align 8
  br label %24

24:                                               ; preds = %22, %12, %6
  %.010 = phi ptr [ %8, %6 ], [ %20, %12 ], [ %23, %22 ]
  ret ptr %.010
}